target datalayout = "e-m:e-p270:32:32-p271:32:32-p272:64:64-i64:64-i128:128-f80:128-n8:16:32:64-S128"
target triple = "x86_64-pc-linux-gnu"

%struct.ParseState = type { ptr, ptr, i32, i32, ptr, ptr, ptr, ptr, ptr, ptr, i8, ptr, ptr, ptr, ptr, ptr, ptr, i8, ptr, i32, i32, ptr, ptr, i8, i8, ptr, i8, i8, i8, i8, i8, ptr, ptr, ptr, ptr, ptr, ptr }

; Function Attrs: nounwind uwtable
define dso_local ptr @parse_sub_analyze(ptr noundef %0, ptr noundef %1, ptr noundef %2, i1 noundef zeroext %3, i1 noundef zeroext %4) #0 {
  %6 = alloca ptr, align 8
  %7 = alloca ptr, align 8
  %8 = alloca ptr, align 8
  %9 = alloca i8, align 1
  %10 = alloca i8, align 1
  %11 = alloca ptr, align 8
  %12 = alloca ptr, align 8
  store ptr %0, ptr %6, align 8
  store ptr %1, ptr %7, align 8
  store ptr %2, ptr %8, align 8
  %13 = zext i1 %3 to i8
  store i8 %13, ptr %9, align 1
  %14 = zext i1 %4 to i8
  store i8 %14, ptr %10, align 1
  call void @llvm.lifetime.start.p0(i64 8, ptr %11) #8
  %15 = load ptr, ptr %7, align 8
  %16 = call ptr @make_parsestate(ptr noundef %15)
  store ptr %16, ptr %11, align 8
  call void @llvm.lifetime.start.p0(i64 8, ptr %12) #8
  %17 = load ptr, ptr %8, align 8
  %18 = load ptr, ptr %11, align 8
  %19 = getelementptr inbounds nuw %struct.ParseState, ptr %18, i32 0, i32 13
  store ptr %17, ptr %19, align 8
  %20 = load i8, ptr %9, align 1, !range !4, !noundef !5
  %21 = trunc i8 %20 to i1
  %22 = load ptr, ptr %11, align 8
  %23 = getelementptr inbounds nuw %struct.ParseState, ptr %22, i32 0, i32 23
  %24 = zext i1 %21 to i8
  store i8 %24, ptr %23, align 8
  %25 = load i8, ptr %10, align 1, !range !4, !noundef !5
  %26 = trunc i8 %25 to i1
  %27 = load ptr, ptr %11, align 8
  %28 = getelementptr inbounds nuw %struct.ParseState, ptr %27, i32 0, i32 24
  %29 = zext i1 %26 to i8
  store i8 %29, ptr %28, align 1
  %30 = load ptr, ptr %11, align 8
  %31 = load ptr, ptr %6, align 8
  %32 = call ptr @transformStmt(ptr noundef %30, ptr noundef %31)
  store ptr %32, ptr %12, align 8
  %33 = load ptr, ptr %11, align 8
  call void @free_parsestate(ptr noundef %33)
  %34 = load ptr, ptr %12, align 8
  call void @llvm.lifetime.end.p0(i64 8, ptr %12) #8
  call void @llvm.lifetime.end.p0(i64 8, ptr %11) #8
  ret ptr %34
}