; Function Attrs: nounwind uwtable
define dso_local ptr @parse_sub_analyze(ptr noundef %0, ptr noundef %1, ptr noundef %2, i1 noundef zeroext %3, i1 noundef zeroext %4) local_unnamed_addr #0 {
  %6 = zext i1 %3 to i8
  %7 = zext i1 %4 to i8
  %8 = tail call ptr @make_parsestate(ptr noundef %1) #11
  %9 = getelementptr inbounds nuw i8, ptr %8, i64 96
  store ptr %2, ptr %9, align 8
  %10 = getelementptr inbounds nuw i8, ptr %8, i64 168
  store i8 %6, ptr %10, align 8
  %11 = getelementptr inbounds nuw i8, ptr %8, i64 169
  store i8 %7, ptr %11, align 1
  %12 = tail call ptr @transformStmt(ptr noundef %8, ptr noundef %0)
  tail call void @free_parsestate(ptr noundef %8) #11
  ret ptr %12
}